target datalayout = "e-m:e-p270:32:32-p271:32:32-p272:64:64-i64:64-i128:128-f80:128-n8:16:32:64-S128"
target triple = "x86_64-pc-linux-gnu"

%struct.GCRef = type { i64 }
%struct.jit_State = type { %struct.GCtrace, ptr, ptr, ptr, ptr, ptr, ptr, i32, i32, i32, i8, i8, %struct.IRType1, i8, %struct.FoldState, ptr, i32, i32, i32, i32, i32, i32, i32, [1 x i32], [5 x %union.TValue], [3 x %union.TValue], ptr, i32, i32, i32, i32, ptr, ptr, i32, i32, i8, ptr, i32, i32, i16, [101 x i16], [258 x i32], [15 x i32], [16 x ptr], [64 x %struct.HotPenalty], i32, [16 x %struct.BPropEntry], i32, %struct.ScEvEntry, ptr, i32, i32, i32, ptr, i32, i32, ptr, ptr, ptr, i64, i64, %union.TValue, ptr, i32, i32 }
%struct.GCtrace = type { %struct.GCRef, i8, i8, i16, i32, i32, %struct.GCRef, ptr, i32, i32, ptr, ptr, %struct.GCRef, %struct.MRef, i32, i32, ptr, i32, i16, i16, i16, i16, i16, i16, i16, i8, i8, i8, i8 }
%struct.MRef = type { i64 }
%struct.IRType1 = type { i8 }
%struct.FoldState = type { %union.IRIns, [2 x %union.IRIns], [2 x %union.IRIns] }
%union.IRIns = type { %struct.GCRef }
%struct.HotPenalty = type { %struct.MRef, i16, i16 }
%struct.BPropEntry = type { i16, i16, i32 }
%struct.ScEvEntry = type { %struct.MRef, i16, i16, i16, i16, %struct.IRType1, i8 }
%union.TValue = type { i64 }
%struct.anon.2 = type { i16, i16, i16, i16 }
%struct.RecordFFData = type { ptr, i64, i32 }

; Function Attrs: alwaysinline nounwind uwtable
define internal void @lj_ir_set_(ptr noundef %0, i16 noundef zeroext %1, i16 noundef zeroext %2, i16 noundef zeroext %3) #1 {
  %5 = alloca ptr, align 8
  %6 = alloca i16, align 2
  %7 = alloca i16, align 2
  %8 = alloca i16, align 2
  store ptr %0, ptr %5, align 8, !tbaa !4
  store i16 %1, ptr %6, align 2, !tbaa !14
  store i16 %2, ptr %7, align 2, !tbaa !14
  store i16 %3, ptr %8, align 2, !tbaa !14
  %9 = load i16, ptr %6, align 2, !tbaa !14
  %10 = load ptr, ptr %5, align 8, !tbaa !4
  %11 = getelementptr inbounds nuw %struct.jit_State, ptr %10, i32 0, i32 14
  %12 = getelementptr inbounds nuw %struct.FoldState, ptr %11, i32 0, i32 0
  %13 = getelementptr inbounds nuw %struct.anon.2, ptr %12, i32 0, i32 2
  store i16 %9, ptr %13, align 4, !tbaa !13
  %14 = load i16, ptr %7, align 2, !tbaa !14
  %15 = load ptr, ptr %5, align 8, !tbaa !4
  %16 = getelementptr inbounds nuw %struct.jit_State, ptr %15, i32 0, i32 14
  %17 = getelementptr inbounds nuw %struct.FoldState, ptr %16, i32 0, i32 0
  %18 = getelementptr inbounds nuw %struct.anon.2, ptr %17, i32 0, i32 0
  store i16 %14, ptr %18, align 8, !tbaa !13
  %19 = load i16, ptr %8, align 2, !tbaa !14
  %20 = load ptr, ptr %5, align 8, !tbaa !4
  %21 = getelementptr inbounds nuw %struct.jit_State, ptr %20, i32 0, i32 14
  %22 = getelementptr inbounds nuw %struct.FoldState, ptr %21, i32 0, i32 0
  %23 = getelementptr inbounds nuw %struct.anon.2, ptr %22, i32 0, i32 1
  store i16 %19, ptr %23, align 2, !tbaa !13
  ret void
}

; Function Attrs: nounwind uwtable
define internal void @recff_bit_shift(ptr noundef %0, ptr noundef %1) #0 {
  %3 = alloca ptr, align 8
  %4 = alloca ptr, align 8
  %5 = alloca i32, align 4
  %6 = alloca i32, align 4
  %7 = alloca i32, align 4
  store ptr %0, ptr %3, align 8, !tbaa !4
  store ptr %1, ptr %4, align 8, !tbaa !46
  %8 = load ptr, ptr %3, align 8, !tbaa !4
  %9 = load ptr, ptr %4, align 8, !tbaa !46
  %10 = call i32 @recff_bit64_shift(ptr noundef %8, ptr noundef %9)
  %11 = icmp ne i32 %10, 0
  br i1 %11, label %12, label %13

12:                                               ; preds = %2
  br label %65

13:                                               ; preds = %2
  call void @llvm.lifetime.start.p0(i64 4, ptr %5) #9
  %14 = load ptr, ptr %3, align 8, !tbaa !4
  %15 = load ptr, ptr %3, align 8, !tbaa !4
  %16 = getelementptr inbounds nuw %struct.jit_State, ptr %15, i32 0, i32 6
  %17 = load ptr, ptr %16, align 8, !tbaa !41
  %18 = getelementptr inbounds i32, ptr %17, i64 0
  %19 = load i32, ptr %18, align 4, !tbaa !9
  %20 = call i32 @lj_opt_narrow_tobit(ptr noundef %14, i32 noundef %19)
  store i32 %20, ptr %5, align 4, !tbaa !9
  call void @llvm.lifetime.start.p0(i64 4, ptr %6) #9
  %21 = load ptr, ptr %3, align 8, !tbaa !4
  %22 = load ptr, ptr %3, align 8, !tbaa !4
  %23 = getelementptr inbounds nuw %struct.jit_State, ptr %22, i32 0, i32 6
  %24 = load ptr, ptr %23, align 8, !tbaa !41
  %25 = getelementptr inbounds i32, ptr %24, i64 1
  %26 = load i32, ptr %25, align 4, !tbaa !9
  %27 = call i32 @lj_opt_narrow_tobit(ptr noundef %21, i32 noundef %26)
  store i32 %27, ptr %6, align 4, !tbaa !9
  call void @llvm.lifetime.start.p0(i64 4, ptr %7) #9
  %28 = load ptr, ptr %4, align 8, !tbaa !46
  %29 = getelementptr inbounds nuw %struct.RecordFFData, ptr %28, i32 0, i32 2
  %30 = load i32, ptr %29, align 8, !tbaa !34
  store i32 %30, ptr %7, align 4, !tbaa !9
  %31 = load i32, ptr %7, align 4, !tbaa !9
  %32 = icmp ult i32 %31, 39
  br i1 %32, label %33, label %34

33:                                               ; preds = %13
  br i1 true, label %49, label %35

34:                                               ; preds = %13
  br i1 true, label %49, label %35

35:                                               ; preds = %34, %33
  %36 = load i32, ptr %6, align 4, !tbaa !9
  %37 = trunc i32 %36 to i16
  %38 = zext i16 %37 to i32
  %39 = icmp slt i32 %38, 32768
  br i1 %39, label %49, label %40

40:                                               ; preds = %35
  %41 = load ptr, ptr %3, align 8, !tbaa !4
  %42 = load i32, ptr %6, align 4, !tbaa !9
  %43 = trunc i32 %42 to i16
  %44 = load ptr, ptr %3, align 8, !tbaa !4
  %45 = call i32 @lj_ir_kint(ptr noundef %44, i32 noundef 31)
  %46 = trunc i32 %45 to i16
  call void @lj_ir_set_(ptr noundef %41, i16 noundef zeroext 8467, i16 noundef zeroext %43, i16 noundef zeroext %46)
  %47 = load ptr, ptr %3, align 8, !tbaa !4
  %48 = call i32 @lj_opt_fold(ptr noundef %47)
  store i32 %48, ptr %6, align 4, !tbaa !9
  br label %49

49:                                               ; preds = %40, %35, %34, %33
  %50 = load ptr, ptr %3, align 8, !tbaa !4
  %51 = load i32, ptr %7, align 4, !tbaa !9
  %52 = shl i32 %51, 8
  %53 = or i32 %52, 19
  %54 = trunc i32 %53 to i16
  %55 = load i32, ptr %5, align 4, !tbaa !9
  %56 = trunc i32 %55 to i16
  %57 = load i32, ptr %6, align 4, !tbaa !9
  %58 = trunc i32 %57 to i16
  call void @lj_ir_set_(ptr noundef %50, i16 noundef zeroext %54, i16 noundef zeroext %56, i16 noundef zeroext %58)
  %59 = load ptr, ptr %3, align 8, !tbaa !4
  %60 = call i32 @lj_opt_fold(ptr noundef %59)
  %61 = load ptr, ptr %3, align 8, !tbaa !4
  %62 = getelementptr inbounds nuw %struct.jit_State, ptr %61, i32 0, i32 6
  %63 = load ptr, ptr %62, align 8, !tbaa !41
  %64 = getelementptr inbounds i32, ptr %63, i64 0
  store i32 %60, ptr %64, align 4, !tbaa !9
  call void @llvm.lifetime.end.p0(i64 4, ptr %7) #9
  call void @llvm.lifetime.end.p0(i64 4, ptr %6) #9
  call void @llvm.lifetime.end.p0(i64 4, ptr %5) #9
  br label %65

65:                                               ; preds = %49, %12
  ret void
}