; Function Attrs: nounwind uwtable
define internal void @recff_bit_shift(ptr noundef %0, ptr noundef %1) #0 {
  %3 = tail call i32 @recff_bit64_shift(ptr noundef %0, ptr noundef %1) #9
  %.not = icmp eq i32 %3, 0
  br i1 %.not, label %4, label %24

4:                                                ; preds = %2
  %5 = getelementptr inbounds nuw i8, ptr %0, i64 160
  %6 = load ptr, ptr %5, align 8, !tbaa !37
  %7 = load i32, ptr %6, align 4, !tbaa !39
  %8 = tail call i32 @lj_opt_narrow_tobit(ptr noundef %0, i32 noundef %7) #9
  %9 = load ptr, ptr %5, align 8, !tbaa !37
  %10 = getelementptr inbounds nuw i8, ptr %9, i64 4
  %11 = load i32, ptr %10, align 4, !tbaa !39
  %12 = tail call i32 @lj_opt_narrow_tobit(ptr noundef %0, i32 noundef %11) #9
  %13 = getelementptr inbounds nuw i8, ptr %1, i64 16
  %14 = load i32, ptr %13, align 8, !tbaa !29
  %.tr = trunc i32 %14 to i16
  %15 = shl i16 %.tr, 8
  %16 = or disjoint i16 %15, 19
  %17 = trunc i32 %8 to i16
  %18 = trunc i32 %12 to i16
  %19 = getelementptr inbounds nuw i8, ptr %0, i64 184
  %20 = getelementptr inbounds nuw i8, ptr %0, i64 188
  store i16 %16, ptr %20, align 4, !tbaa !4
  store i16 %17, ptr %19, align 8, !tbaa !4
  %21 = getelementptr inbounds nuw i8, ptr %0, i64 186
  store i16 %18, ptr %21, align 2, !tbaa !4
  %22 = tail call i32 @lj_opt_fold(ptr noundef %0) #9
  %23 = load ptr, ptr %5, align 8, !tbaa !37
  store i32 %22, ptr %23, align 4, !tbaa !39
  br label %24

24:                                               ; preds = %2, %4
  ret void
}